target datalayout = "e-m:e-p270:32:32-p271:32:32-p272:64:64-i64:64-i128:128-f80:128-n8:16:32:64-S128"
target triple = "x86_64-pc-linux-gnu"

%struct.Agobj_s = type { %struct.Agtag_s, ptr }
%struct.Agtag_s = type { i32, i64 }
%struct.Agraphinfo_t = type { %struct.Agrec_s, ptr, ptr, %struct.boxf, [4 x %struct.pointf_s], i8, i8, i8, i8, i32, double, double, i16, ptr, ptr, ptr, ptr, i32, ptr, ptr, ptr, ptr, i16, i16, i32, ptr, ptr, ptr, ptr, ptr, i32, ptr, ptr, %struct.nlist_t, ptr, ptr, i32, i32, i8, i8, i32, i32, i32, ptr, ptr, ptr, ptr, i8, i8, i8, i8, i8 }
%struct.Agrec_s = type { ptr, ptr }
%struct.boxf = type { %struct.pointf_s, %struct.pointf_s }
%struct.pointf_s = type { double, double }
%struct.nlist_t = type { ptr, i64 }

@Nop = external global i32, align 4
@Pack = internal global i32 0, align 4

; Function Attrs: nounwind uwtable
define internal void @neato_cleanup_graph(ptr noundef %0) #0 {
  %2 = alloca ptr, align 8
  store ptr %0, ptr %2, align 8, !tbaa !57
  %3 = load i32, ptr @Nop, align 4, !tbaa !47
  %4 = icmp ne i32 %3, 0
  br i1 %4, label %8, label %5

5:                                                ; preds = %1
  %6 = load i32, ptr @Pack, align 4, !tbaa !47
  %7 = icmp slt i32 %6, 0
  br i1 %7, label %8, label %10

8:                                                ; preds = %5, %1
  %9 = load ptr, ptr %2, align 8, !tbaa !57
  call void @free_scan_graph(ptr noundef %9)
  br label %10

10:                                               ; preds = %8, %5
  %11 = load ptr, ptr %2, align 8, !tbaa !57
  %12 = getelementptr inbounds nuw %struct.Agobj_s, ptr %11, i32 0, i32 1
  %13 = load ptr, ptr %12, align 8, !tbaa !8
  %14 = getelementptr inbounds nuw %struct.Agraphinfo_t, ptr %13, i32 0, i32 25
  %15 = load ptr, ptr %14, align 8, !tbaa !61
  call void @free(ptr noundef %15) #15
  ret void
}

; Function Attrs: nounwind uwtable
define void @neato_cleanup(ptr noundef %0) #0 {
  %2 = alloca ptr, align 8
  %3 = alloca ptr, align 8
  %4 = alloca ptr, align 8
  store ptr %0, ptr %2, align 8, !tbaa !57
  call void @llvm.lifetime.start.p0(i64 8, ptr %3) #15
  call void @llvm.lifetime.start.p0(i64 8, ptr %4) #15
  %5 = load ptr, ptr %2, align 8, !tbaa !57
  %6 = call ptr @agfstnode(ptr noundef %5)
  store ptr %6, ptr %3, align 8, !tbaa !3
  br label %7

7:                                                ; preds = %25, %1
  %8 = load ptr, ptr %3, align 8, !tbaa !3
  %9 = icmp ne ptr %8, null
  br i1 %9, label %10, label %29

10:                                               ; preds = %7
  %11 = load ptr, ptr %2, align 8, !tbaa !57
  %12 = load ptr, ptr %3, align 8, !tbaa !3
  %13 = call ptr @agfstout(ptr noundef %11, ptr noundef %12)
  store ptr %13, ptr %4, align 8, !tbaa !58
  br label %14

14:                                               ; preds = %19, %10
  %15 = load ptr, ptr %4, align 8, !tbaa !58
  %16 = icmp ne ptr %15, null
  br i1 %16, label %17, label %23

17:                                               ; preds = %14
  %18 = load ptr, ptr %4, align 8, !tbaa !58
  call void @gv_cleanup_edge(ptr noundef %18)
  br label %19

19:                                               ; preds = %17
  %20 = load ptr, ptr %2, align 8, !tbaa !57
  %21 = load ptr, ptr %4, align 8, !tbaa !58
  %22 = call ptr @agnxtout(ptr noundef %20, ptr noundef %21)
  store ptr %22, ptr %4, align 8, !tbaa !58
  br label %14, !llvm.loop !59

23:                                               ; preds = %14
  %24 = load ptr, ptr %3, align 8, !tbaa !3
  call void @gv_cleanup_node(ptr noundef %24)
  br label %25

25:                                               ; preds = %23
  %26 = load ptr, ptr %2, align 8, !tbaa !57
  %27 = load ptr, ptr %3, align 8, !tbaa !3
  %28 = call ptr @agnxtnode(ptr noundef %26, ptr noundef %27)
  store ptr %28, ptr %3, align 8, !tbaa !3
  br label %7, !llvm.loop !60

29:                                               ; preds = %7
  %30 = load ptr, ptr %2, align 8, !tbaa !57
  call void @neato_cleanup_graph(ptr noundef %30)
  call void @llvm.lifetime.end.p0(i64 8, ptr %4) #15
  call void @llvm.lifetime.end.p0(i64 8, ptr %3) #15
  ret void
}