; Function Attrs: nounwind uwtable
define void @neato_cleanup(ptr noundef %0) local_unnamed_addr #0 {
  %2 = tail call ptr @agfstnode(ptr noundef %0) #22
  %.not16 = icmp eq ptr %2, null
  br i1 %.not16, label %._crit_edge20, label %.lr.ph19

.lr.ph19:                                         ; preds = %1, %._crit_edge
  %.01217 = phi ptr [ %5, %._crit_edge ], [ %2, %1 ]
  %3 = tail call ptr @agfstout(ptr noundef %0, ptr noundef nonnull %.01217) #22
  %.not1314 = icmp eq ptr %3, null
  br i1 %.not1314, label %._crit_edge, label %.lr.ph

.lr.ph:                                           ; preds = %.lr.ph19, %.lr.ph
  %.015 = phi ptr [ %4, %.lr.ph ], [ %3, %.lr.ph19 ]
  tail call void @gv_cleanup_edge(ptr noundef nonnull %.015) #22
  %4 = tail call ptr @agnxtout(ptr noundef %0, ptr noundef nonnull %.015) #22
  %.not13 = icmp eq ptr %4, null
  br i1 %.not13, label %._crit_edge, label %.lr.ph, !llvm.loop !51

._crit_edge:                                      ; preds = %.lr.ph, %.lr.ph19
  tail call void @gv_cleanup_node(ptr noundef nonnull %.01217) #22
  %5 = tail call ptr @agnxtnode(ptr noundef %0, ptr noundef nonnull %.01217) #22
  %.not = icmp eq ptr %5, null
  br i1 %.not, label %._crit_edge20, label %.lr.ph19, !llvm.loop !52

._crit_edge20:                                    ; preds = %._crit_edge, %1
  %6 = load i32, ptr @Nop, align 4, !tbaa !53
  %7 = icmp ne i32 %6, 0
  %8 = load i32, ptr @Pack, align 4
  %9 = icmp slt i32 %8, 0
  %or.cond.i = select i1 %7, i1 true, i1 %9
  br i1 %or.cond.i, label %10, label %neato_cleanup_graph.exit

10:                                               ; preds = %._crit_edge20
  tail call void @free_scan_graph(ptr noundef %0) #22
  br label %neato_cleanup_graph.exit

neato_cleanup_graph.exit:                         ; preds = %._crit_edge20, %10
  %11 = getelementptr inbounds nuw i8, ptr %0, i64 16
  %12 = load ptr, ptr %11, align 8, !tbaa !3
  %13 = getelementptr inbounds nuw i8, ptr %12, i64 240
  %14 = load ptr, ptr %13, align 8, !tbaa !54
  tail call void @free(ptr noundef %14) #22
  ret void
}